; Function Attrs: mustprogress uwtable
define internal void @"_ZNK2rc3GenINSt7__cxx1112basic_stringIcSt11char_traitsIcESaIcEEEE7GenImplINS_3gen6detail6MapGenIN3nix13StorePathNameEZNS_9ArbitraryINSC_11OutputsSpecEvE9arbitraryEvE3$_0EEE8generateERKNS_6RandomEi"(ptr dead_on_unwind noalias nocapture writable writeonly sret(%"class.rc::Shrinkable.117") align 8 %0, ptr noundef nonnull align 8 dereferenceable(64) %1, ptr noundef nonnull align 8 dereferenceable(81) %2, i32 noundef %3) unnamed_addr #3 align 2 personality ptr @__gxx_personality_v0 {
  %5 = alloca %"class.rc::Shrinkable.118", align 8
  tail call void @llvm.experimental.noalias.scope.decl(metadata !201)
  call void @llvm.lifetime.start.p0(i64 8, ptr nonnull %5)
  %6 = getelementptr inbounds i8, ptr %1, i64 16
  call void @_ZNK2rc3GenIN3nix13StorePathNameEEclERKNS_6RandomEi(ptr dead_on_unwind nonnull writable sret(%"class.rc::Shrinkable.118") align 8 %5, ptr noundef nonnull align 8 dereferenceable(40) %6, ptr noundef nonnull align 8 dereferenceable(81) %2, i32 noundef %3) #22, !noalias !201
  call void @llvm.experimental.noalias.scope.decl(metadata !204)
  call void @llvm.experimental.noalias.scope.decl(metadata !207)
  %7 = invoke noalias noundef nonnull dereferenceable(32) ptr @_Znwm(i64 noundef 32) #21
          to label %"_ZNK2rc3gen6detail6MapGenIN3nix13StorePathNameEZNS_9ArbitraryINS3_11OutputsSpecEvE9arbitraryEvE3$_0EclB5cxx11ERKNS_6RandomEi.exit" unwind label %8, !noalias !201

8:                                                ; preds = %4
  %9 = landingpad { ptr, i32 }
          cleanup
  %10 = load ptr, ptr %5, align 8, !noalias !201
  %.not.i4.i = icmp eq ptr %10, null
  br i1 %.not.i4.i, label %_ZN2rc10ShrinkableIN3nix13StorePathNameEED2Ev.exit5.i, label %11

11:                                               ; preds = %8
  %12 = load ptr, ptr %10, align 8, !noalias !201
  %13 = getelementptr inbounds i8, ptr %12, i64 24
  %14 = load ptr, ptr %13, align 8, !noalias !201
  invoke void %14(ptr noundef nonnull align 8 dereferenceable(8) %10)
          to label %_ZN2rc10ShrinkableIN3nix13StorePathNameEED2Ev.exit5.i unwind label %15, !noalias !201

15:                                               ; preds = %11
  %16 = landingpad { ptr, i32 }
          catch ptr null
  %17 = extractvalue { ptr, i32 } %16, 0
  call void @__clang_call_terminate(ptr %17) #24
  unreachable

_ZN2rc10ShrinkableIN3nix13StorePathNameEED2Ev.exit5.i: ; preds = %11, %8
  resume { ptr, i32 } %9

"_ZNK2rc3gen6detail6MapGenIN3nix13StorePathNameEZNS_9ArbitraryINS3_11OutputsSpecEvE9arbitraryEvE3$_0EclB5cxx11ERKNS_6RandomEi.exit": ; preds = %4
  store ptr getelementptr inbounds ({ [8 x ptr] }, ptr @"_ZTVN2rc10ShrinkableINSt7__cxx1112basic_stringIcSt11char_traitsIcESaIcEEEE14ShrinkableImplINS_10shrinkable6detail13MapShrinkableIN3nix13StorePathNameEZNS_9ArbitraryINSC_11OutputsSpecEvE9arbitraryEvE3$_0EEEE", i64 0, i32 0, i64 2), ptr %7, align 8, !noalias !210
  %18 = load ptr, ptr %5, align 8, !noalias !210
  %19 = getelementptr inbounds i8, ptr %7, i64 16
  store ptr %18, ptr %19, align 8, !noalias !210
  %20 = getelementptr inbounds i8, ptr %7, i64 24
  store i64 1, ptr %20, align 8, !noalias !210
  store ptr %7, ptr %0, align 8, !alias.scope !210
  call void @llvm.lifetime.end.p0(i64 8, ptr nonnull %5)
  ret void
}